target datalayout = "e-m:e-p270:32:32-p271:32:32-p272:64:64-i64:64-i128:128-f80:128-n8:16:32:64-S128"
target triple = "x86_64-pc-linux-gnu"

; Function Attrs: mustprogress nounwind uwtable
define internal noundef i32 @_ZL17GetModForLRModKey8ImGuiKey(i32 noundef %0) #1 {
  %2 = alloca i32, align 4
  %3 = alloca i32, align 4
  store i32 %0, ptr %3, align 4, !tbaa !264
  %4 = load i32, ptr %3, align 4, !tbaa !264
  %5 = icmp eq i32 %4, 527
  br i1 %5, label %9, label %6

6:                                                ; preds = %1
  %7 = load i32, ptr %3, align 4, !tbaa !264
  %8 = icmp eq i32 %7, 531
  br i1 %8, label %9, label %10

9:                                                ; preds = %6, %1
  store i32 4096, ptr %2, align 4
  br label %32

10:                                               ; preds = %6
  %11 = load i32, ptr %3, align 4, !tbaa !264
  %12 = icmp eq i32 %11, 528
  br i1 %12, label %16, label %13

13:                                               ; preds = %10
  %14 = load i32, ptr %3, align 4, !tbaa !264
  %15 = icmp eq i32 %14, 532
  br i1 %15, label %16, label %17

16:                                               ; preds = %13, %10
  store i32 8192, ptr %2, align 4
  br label %32

17:                                               ; preds = %13
  %18 = load i32, ptr %3, align 4, !tbaa !264
  %19 = icmp eq i32 %18, 529
  br i1 %19, label %23, label %20

20:                                               ; preds = %17
  %21 = load i32, ptr %3, align 4, !tbaa !264
  %22 = icmp eq i32 %21, 533
  br i1 %22, label %23, label %24

23:                                               ; preds = %20, %17
  store i32 16384, ptr %2, align 4
  br label %32

24:                                               ; preds = %20
  %25 = load i32, ptr %3, align 4, !tbaa !264
  %26 = icmp eq i32 %25, 530
  br i1 %26, label %30, label %27

27:                                               ; preds = %24
  %28 = load i32, ptr %3, align 4, !tbaa !264
  %29 = icmp eq i32 %28, 534
  br i1 %29, label %30, label %31

30:                                               ; preds = %27, %24
  store i32 32768, ptr %2, align 4
  br label %32

31:                                               ; preds = %27
  store i32 0, ptr %2, align 4
  br label %32

32:                                               ; preds = %31, %30, %23, %16, %9
  %33 = load i32, ptr %2, align 4
  ret i32 %33
}

; Function Attrs: inlinehint mustprogress nounwind uwtable
define linkonce_odr dso_local noundef zeroext i1 @_ZN5ImGui10IsLRModKeyE8ImGuiKey(i32 noundef %0) #7 comdat {
  %2 = alloca i32, align 4
  store i32 %0, ptr %2, align 4, !tbaa !264
  %3 = load i32, ptr %2, align 4, !tbaa !264
  %4 = icmp sge i32 %3, 527
  br i1 %4, label %5, label %8

5:                                                ; preds = %1
  %6 = load i32, ptr %2, align 4, !tbaa !264
  %7 = icmp sle i32 %6, 534
  br label %8

8:                                                ; preds = %5, %1
  %9 = phi i1 [ false, %1 ], [ %7, %5 ]
  ret i1 %9
}

; Function Attrs: mustprogress uwtable
define dso_local noundef i32 @_ZN5ImGui13FixupKeyChordEi(i32 noundef %0) #0 {
  %2 = alloca i32, align 4
  %3 = alloca i32, align 4
  store i32 %0, ptr %2, align 4, !tbaa !117
  call void @llvm.lifetime.start.p0(i64 4, ptr %3) #16
  %4 = load i32, ptr %2, align 4, !tbaa !117
  %5 = and i32 %4, -61441
  store i32 %5, ptr %3, align 4, !tbaa !264
  %6 = load i32, ptr %3, align 4, !tbaa !264
  %7 = call noundef zeroext i1 @_ZN5ImGui10IsLRModKeyE8ImGuiKey(i32 noundef %6)
  br i1 %7, label %8, label %13

8:                                                ; preds = %1
  %9 = load i32, ptr %3, align 4, !tbaa !264
  %10 = call noundef i32 @_ZL17GetModForLRModKey8ImGuiKey(i32 noundef %9)
  %11 = load i32, ptr %2, align 4, !tbaa !117
  %12 = or i32 %11, %10
  store i32 %12, ptr %2, align 4, !tbaa !117
  br label %13

13:                                               ; preds = %8, %1
  %14 = load i32, ptr %2, align 4, !tbaa !117
  call void @llvm.lifetime.end.p0(i64 4, ptr %3) #16
  ret i32 %14
}