; Function Attrs: mustprogress nofree norecurse nosync nounwind willreturn memory(none) uwtable
define dso_local noundef i32 @_ZN5ImGui13FixupKeyChordEi(i32 noundef %0) local_unnamed_addr #9 {
  %2 = and i32 %0, -61441
  %3 = add i32 %2, -527
  %4 = icmp ult i32 %3, 8
  br i1 %4, label %5, label %10

5:                                                ; preds = %1
  switch i32 %2, label %6 [
    i32 531, label %_ZL17GetModForLRModKey8ImGuiKey.exit
    i32 527, label %_ZL17GetModForLRModKey8ImGuiKey.exit
  ]

6:                                                ; preds = %5
  %7 = and i32 %0, -61445
  switch i32 %7, label %8 [
    i32 528, label %_ZL17GetModForLRModKey8ImGuiKey.exit
    i32 529, label %.fold.split.i
  ]

8:                                                ; preds = %6
  %or.cond7.i = icmp eq i32 %7, 530
  %..i = select i1 %or.cond7.i, i32 32768, i32 0
  br label %_ZL17GetModForLRModKey8ImGuiKey.exit

.fold.split.i:                                    ; preds = %6
  br label %_ZL17GetModForLRModKey8ImGuiKey.exit

_ZL17GetModForLRModKey8ImGuiKey.exit:             ; preds = %5, %5, %6, %8, %.fold.split.i
  %.0.i = phi i32 [ 4096, %5 ], [ 4096, %5 ], [ 8192, %6 ], [ %..i, %8 ], [ 16384, %.fold.split.i ]
  %9 = or i32 %.0.i, %0
  br label %10

10:                                               ; preds = %_ZL17GetModForLRModKey8ImGuiKey.exit, %1
  %.0 = phi i32 [ %9, %_ZL17GetModForLRModKey8ImGuiKey.exit ], [ %0, %1 ]
  ret i32 %.0
}